target datalayout = "e-m:e-p270:32:32-p271:32:32-p272:64:64-i64:64-i128:128-f80:128-n8:16:32:64-S128"
target triple = "x86_64-unknown-linux-gnu"

%struct.llama_hparams = type { i8, i32, i32, i32, i32, i32, i32, i32, i32, i32, i32, float, float, float, float, i32, i8, float, float }
%"class.std::function" = type { %"class.std::_Function_base", ptr }
%"class.std::_Function_base" = type { %"union.std::_Any_data", ptr }
%"union.std::_Any_data" = type { %"union.std::_Nocopy_types" }
%"union.std::_Nocopy_types" = type { { i64, i64 } }

@.str.106 = private unnamed_addr constant [5 x i8] c"norm\00", align 1
@.str.107 = private unnamed_addr constant [7 x i8] c"norm_w\00", align 1

; Function Attrs: mustprogress nounwind uwtable
define linkonce_odr noundef zeroext i1 @_ZNKSt14_Function_base8_M_emptyEv(ptr noundef nonnull align 8 dereferenceable(24) %this) #1 comdat align 2 {
entry:
  %this.addr = alloca ptr, align 8
  store ptr %this, ptr %this.addr, align 8
  %this1 = load ptr, ptr %this.addr, align 8
  %_M_manager = getelementptr inbounds %"class.std::_Function_base", ptr %this1, i32 0, i32 1
  %0 = load ptr, ptr %_M_manager, align 8
  %tobool = icmp ne ptr %0, null
  %lnot = xor i1 %tobool, true
  ret i1 %lnot
}

; Function Attrs: mustprogress uwtable
define linkonce_odr void @_ZNKSt8functionIFvP11ggml_tensorPKciEEclES1_S3_i(ptr noundef nonnull align 8 dereferenceable(32) %this, ptr noundef %__args, ptr noundef %__args1, i32 noundef %__args3) #2 comdat align 2 {
entry:
  %this.addr = alloca ptr, align 8
  %__args.addr = alloca ptr, align 8
  %__args.addr2 = alloca ptr, align 8
  %__args.addr4 = alloca i32, align 4
  store ptr %this, ptr %this.addr, align 8
  store ptr %__args, ptr %__args.addr, align 8
  store ptr %__args1, ptr %__args.addr2, align 8
  store i32 %__args3, ptr %__args.addr4, align 4
  %this5 = load ptr, ptr %this.addr, align 8
  %call = call noundef zeroext i1 @_ZNKSt14_Function_base8_M_emptyEv(ptr noundef nonnull align 8 dereferenceable(24) %this5)
  br i1 %call, label %if.then, label %if.end

if.then:                                          ; preds = %entry
  call void @_ZSt25__throw_bad_function_callv() #26
  unreachable

if.end:                                           ; preds = %entry
  %_M_invoker = getelementptr inbounds %"class.std::function", ptr %this5, i32 0, i32 1
  %0 = load ptr, ptr %_M_invoker, align 8
  %_M_functor = getelementptr inbounds %"class.std::_Function_base", ptr %this5, i32 0, i32 0
  call void %0(ptr noundef nonnull align 8 dereferenceable(16) %_M_functor, ptr noundef nonnull align 8 dereferenceable(8) %__args.addr, ptr noundef nonnull align 8 dereferenceable(8) %__args.addr2, ptr noundef nonnull align 4 dereferenceable(4) %__args.addr4)
  ret void
}

; Function Attrs: mustprogress uwtable
define internal noundef ptr @_ZL14llm_build_normP12ggml_contextP11ggml_tensorRK13llama_hparamsS2_S2_13llm_norm_typeRKSt8functionIFvS2_PKciEEi(ptr noundef %ctx, ptr noundef %cur, ptr noundef nonnull align 4 dereferenceable(76) %hparams, ptr noundef %mw, ptr noundef %mb, i32 noundef %type, ptr noundef nonnull align 8 dereferenceable(32) %cb, i32 noundef %il) #2 {
entry:
  %ctx.addr = alloca ptr, align 8
  %cur.addr = alloca ptr, align 8
  %hparams.addr = alloca ptr, align 8
  %mw.addr = alloca ptr, align 8
  %mb.addr = alloca ptr, align 8
  %type.addr = alloca i32, align 4
  %cb.addr = alloca ptr, align 8
  %il.addr = alloca i32, align 4
  store ptr %ctx, ptr %ctx.addr, align 8
  store ptr %cur, ptr %cur.addr, align 8
  store ptr %hparams, ptr %hparams.addr, align 8
  store ptr %mw, ptr %mw.addr, align 8
  store ptr %mb, ptr %mb.addr, align 8
  store i32 %type, ptr %type.addr, align 4
  store ptr %cb, ptr %cb.addr, align 8
  store i32 %il, ptr %il.addr, align 4
  %0 = load i32, ptr %type.addr, align 4
  switch i32 %0, label %sw.epilog [
    i32 0, label %sw.bb
    i32 1, label %sw.bb1
  ]

sw.bb:                                            ; preds = %entry
  %1 = load ptr, ptr %ctx.addr, align 8
  %2 = load ptr, ptr %cur.addr, align 8
  %3 = load ptr, ptr %hparams.addr, align 8
  %f_norm_eps = getelementptr inbounds %struct.llama_hparams, ptr %3, i32 0, i32 11
  %4 = load float, ptr %f_norm_eps, align 4
  %call = call ptr @ggml_norm(ptr noundef %1, ptr noundef %2, float noundef %4)
  store ptr %call, ptr %cur.addr, align 8
  br label %sw.epilog

sw.bb1:                                           ; preds = %entry
  %5 = load ptr, ptr %ctx.addr, align 8
  %6 = load ptr, ptr %cur.addr, align 8
  %7 = load ptr, ptr %hparams.addr, align 8
  %f_norm_rms_eps = getelementptr inbounds %struct.llama_hparams, ptr %7, i32 0, i32 12
  %8 = load float, ptr %f_norm_rms_eps, align 4
  %call2 = call ptr @ggml_rms_norm(ptr noundef %5, ptr noundef %6, float noundef %8)
  store ptr %call2, ptr %cur.addr, align 8
  br label %sw.epilog

sw.epilog:                                        ; preds = %sw.bb1, %sw.bb, %entry
  %9 = load ptr, ptr %mw.addr, align 8
  %tobool = icmp ne ptr %9, null
  br i1 %tobool, label %if.then, label %lor.lhs.false

lor.lhs.false:                                    ; preds = %sw.epilog
  %10 = load ptr, ptr %mb.addr, align 8
  %tobool3 = icmp ne ptr %10, null
  br i1 %tobool3, label %if.then, label %if.end

if.then:                                          ; preds = %lor.lhs.false, %sw.epilog
  %11 = load ptr, ptr %cb.addr, align 8
  %12 = load ptr, ptr %cur.addr, align 8
  %13 = load i32, ptr %il.addr, align 4
  call void @_ZNKSt8functionIFvP11ggml_tensorPKciEEclES1_S3_i(ptr noundef nonnull align 8 dereferenceable(32) %11, ptr noundef %12, ptr noundef @.str.106, i32 noundef %13)
  br label %if.end

if.end:                                           ; preds = %if.then, %lor.lhs.false
  %14 = load ptr, ptr %mw.addr, align 8
  %tobool4 = icmp ne ptr %14, null
  br i1 %tobool4, label %if.then5, label %if.end10

if.then5:                                         ; preds = %if.end
  %15 = load ptr, ptr %ctx.addr, align 8
  %16 = load ptr, ptr %cur.addr, align 8
  %17 = load ptr, ptr %mw.addr, align 8
  %call6 = call ptr @ggml_mul(ptr noundef %15, ptr noundef %16, ptr noundef %17)
  store ptr %call6, ptr %cur.addr, align 8
  %18 = load ptr, ptr %mb.addr, align 8
  %tobool7 = icmp ne ptr %18, null
  br i1 %tobool7, label %if.then8, label %if.end9

if.then8:                                         ; preds = %if.then5
  %19 = load ptr, ptr %cb.addr, align 8
  %20 = load ptr, ptr %cur.addr, align 8
  %21 = load i32, ptr %il.addr, align 4
  call void @_ZNKSt8functionIFvP11ggml_tensorPKciEEclES1_S3_i(ptr noundef nonnull align 8 dereferenceable(32) %19, ptr noundef %20, ptr noundef @.str.107, i32 noundef %21)
  br label %if.end9

if.end9:                                          ; preds = %if.then8, %if.then5
  br label %if.end10

if.end10:                                         ; preds = %if.end9, %if.end
  %22 = load ptr, ptr %mb.addr, align 8
  %tobool11 = icmp ne ptr %22, null
  br i1 %tobool11, label %if.then12, label %if.end14

if.then12:                                        ; preds = %if.end10
  %23 = load ptr, ptr %ctx.addr, align 8
  %24 = load ptr, ptr %cur.addr, align 8
  %25 = load ptr, ptr %mb.addr, align 8
  %call13 = call ptr @ggml_add(ptr noundef %23, ptr noundef %24, ptr noundef %25)
  store ptr %call13, ptr %cur.addr, align 8
  br label %if.end14

if.end14:                                         ; preds = %if.then12, %if.end10
  %26 = load ptr, ptr %cur.addr, align 8
  ret ptr %26
}