; Function Attrs: mustprogress uwtable
define internal fastcc noundef ptr @_ZL14llm_build_normP12ggml_contextP11ggml_tensorRK13llama_hparamsS2_S2_13llm_norm_typeRKSt8functionIFvS2_PKciEEi(ptr noundef %ctx, ptr noundef %cur, float %hparams.44.val, float %hparams.48.val, ptr noundef %mw, ptr noundef %mb, i32 noundef %type, ptr noundef nonnull align 8 dereferenceable(32) %cb, i32 noundef %il) unnamed_addr #2 {
entry:
  %__args.addr.i18 = alloca ptr, align 8
  %__args.addr2.i19 = alloca ptr, align 8
  %__args.addr4.i20 = alloca i32, align 4
  %__args.addr.i = alloca ptr, align 8
  %__args.addr2.i = alloca ptr, align 8
  %__args.addr4.i = alloca i32, align 4
  %switch = icmp eq i32 %type, 0
  br i1 %switch, label %sw.bb, label %sw.bb1

sw.bb:                                            ; preds = %entry
  %call = tail call ptr @ggml_norm(ptr noundef %ctx, ptr noundef %cur, float noundef %hparams.44.val)
  br label %sw.epilog

sw.bb1:                                           ; preds = %entry
  %call2 = tail call ptr @ggml_rms_norm(ptr noundef %ctx, ptr noundef %cur, float noundef %hparams.48.val)
  br label %sw.epilog

sw.epilog:                                        ; preds = %sw.bb1, %sw.bb
  %cur.addr.0 = phi ptr [ %call2, %sw.bb1 ], [ %call, %sw.bb ]
  %tobool = icmp ne ptr %mw, null
  %tobool3 = icmp ne ptr %mb, null
  %or.cond = or i1 %tobool, %tobool3
  br i1 %or.cond, label %if.then, label %if.end14

if.then:                                          ; preds = %sw.epilog
  call void @llvm.lifetime.start.p0(i64 8, ptr nonnull %__args.addr.i)
  call void @llvm.lifetime.start.p0(i64 8, ptr nonnull %__args.addr2.i)
  call void @llvm.lifetime.start.p0(i64 4, ptr nonnull %__args.addr4.i)
  store ptr %cur.addr.0, ptr %__args.addr.i, align 8
  store ptr @.str.106, ptr %__args.addr2.i, align 8
  store i32 %il, ptr %__args.addr4.i, align 4
  %_M_manager.i.i = getelementptr inbounds i8, ptr %cb, i64 16
  %0 = load ptr, ptr %_M_manager.i.i, align 8
  %tobool.not.i.i = icmp eq ptr %0, null
  br i1 %tobool.not.i.i, label %if.then.i, label %if.end

if.then.i:                                        ; preds = %if.then
  tail call void @_ZSt25__throw_bad_function_callv() #47
  unreachable

if.end:                                           ; preds = %if.then
  %_M_invoker.i = getelementptr inbounds i8, ptr %cb, i64 24
  %1 = load ptr, ptr %_M_invoker.i, align 8
  call void %1(ptr noundef nonnull align 8 dereferenceable(16) %cb, ptr noundef nonnull align 8 dereferenceable(8) %__args.addr.i, ptr noundef nonnull align 8 dereferenceable(8) %__args.addr2.i, ptr noundef nonnull align 4 dereferenceable(4) %__args.addr4.i)
  call void @llvm.lifetime.end.p0(i64 8, ptr nonnull %__args.addr.i)
  call void @llvm.lifetime.end.p0(i64 8, ptr nonnull %__args.addr2.i)
  call void @llvm.lifetime.end.p0(i64 4, ptr nonnull %__args.addr4.i)
  br i1 %tobool, label %if.then5, label %if.end10

if.then5:                                         ; preds = %if.end
  %call6 = call ptr @ggml_mul(ptr noundef %ctx, ptr noundef %cur.addr.0, ptr noundef nonnull %mw)
  br i1 %tobool3, label %if.then8, label %if.end14

if.then8:                                         ; preds = %if.then5
  call void @llvm.lifetime.start.p0(i64 8, ptr nonnull %__args.addr.i18)
  call void @llvm.lifetime.start.p0(i64 8, ptr nonnull %__args.addr2.i19)
  call void @llvm.lifetime.start.p0(i64 4, ptr nonnull %__args.addr4.i20)
  store ptr %call6, ptr %__args.addr.i18, align 8
  store ptr @.str.107, ptr %__args.addr2.i19, align 8
  store i32 %il, ptr %__args.addr4.i20, align 4
  %2 = load ptr, ptr %_M_manager.i.i, align 8
  %tobool.not.i.i22 = icmp eq ptr %2, null
  br i1 %tobool.not.i.i22, label %if.then.i24, label %if.end10.thread2

if.then.i24:                                      ; preds = %if.then8
  call void @_ZSt25__throw_bad_function_callv() #47
  unreachable

if.end10.thread2:                                 ; preds = %if.then8
  %3 = load ptr, ptr %_M_invoker.i, align 8
  call void %3(ptr noundef nonnull align 8 dereferenceable(16) %cb, ptr noundef nonnull align 8 dereferenceable(8) %__args.addr.i18, ptr noundef nonnull align 8 dereferenceable(8) %__args.addr2.i19, ptr noundef nonnull align 4 dereferenceable(4) %__args.addr4.i20)
  call void @llvm.lifetime.end.p0(i64 8, ptr nonnull %__args.addr.i18)
  call void @llvm.lifetime.end.p0(i64 8, ptr nonnull %__args.addr2.i19)
  call void @llvm.lifetime.end.p0(i64 4, ptr nonnull %__args.addr4.i20)
  br label %if.then12

if.end10:                                         ; preds = %if.end
  br i1 %tobool3, label %if.then12, label %if.end14

if.then12:                                        ; preds = %if.end10.thread2, %if.end10
  %cur.addr.14 = phi ptr [ %call6, %if.end10.thread2 ], [ %cur.addr.0, %if.end10 ]
  %call13 = call ptr @ggml_add(ptr noundef %ctx, ptr noundef %cur.addr.14, ptr noundef nonnull %mb)
  br label %if.end14

if.end14:                                         ; preds = %sw.epilog, %if.then5, %if.then12, %if.end10
  %cur.addr.2 = phi ptr [ %call13, %if.then12 ], [ %cur.addr.0, %if.end10 ], [ %call6, %if.then5 ], [ %cur.addr.0, %sw.epilog ]
  ret ptr %cur.addr.2
}